target datalayout = "e-m:e-p270:32:32-p271:32:32-p272:64:64-i64:64-i128:128-f80:128-n8:16:32:64-S128"
target triple = "x86_64-pc-linux-gnu"

%struct.Curl_cfilter = type { ptr, ptr, ptr, ptr, i32, i8 }
%struct.socks_state = type { i32, i64, [600 x i8], ptr, ptr, i32, ptr, ptr }

; Function Attrs: nounwind uwtable
define internal void @socks_cf_adjust_pollset(ptr noundef %0, ptr noundef %1, ptr noundef %2) #0 {
  %4 = alloca ptr, align 8
  %5 = alloca ptr, align 8
  %6 = alloca ptr, align 8
  %7 = alloca ptr, align 8
  %8 = alloca i32, align 4
  store ptr %0, ptr %4, align 8, !tbaa !4
  store ptr %1, ptr %5, align 8, !tbaa !9
  store ptr %2, ptr %6, align 8, !tbaa !80
  call void @llvm.lifetime.start.p0(i64 8, ptr %7) #6
  %9 = load ptr, ptr %4, align 8, !tbaa !4
  %10 = getelementptr inbounds nuw %struct.Curl_cfilter, ptr %9, i32 0, i32 2
  %11 = load ptr, ptr %10, align 8, !tbaa !23
  store ptr %11, ptr %7, align 8, !tbaa !24
  %12 = load ptr, ptr %4, align 8, !tbaa !4
  %13 = getelementptr inbounds nuw %struct.Curl_cfilter, ptr %12, i32 0, i32 5
  %14 = load i8, ptr %13, align 4
  %15 = and i8 %14, 1
  %16 = zext i8 %15 to i32
  %17 = icmp ne i32 %16, 0
  br i1 %17, label %37, label %18

18:                                               ; preds = %3
  %19 = load ptr, ptr %7, align 8, !tbaa !24
  %20 = icmp ne ptr %19, null
  br i1 %20, label %21, label %37

21:                                               ; preds = %18
  call void @llvm.lifetime.start.p0(i64 4, ptr %8) #6
  %22 = load ptr, ptr %4, align 8, !tbaa !4
  %23 = load ptr, ptr %5, align 8, !tbaa !9
  %24 = call i32 @Curl_conn_cf_get_socket(ptr noundef %22, ptr noundef %23)
  store i32 %24, ptr %8, align 4, !tbaa !22
  %25 = load ptr, ptr %7, align 8, !tbaa !24
  %26 = getelementptr inbounds nuw %struct.socks_state, ptr %25, i32 0, i32 0
  %27 = load i32, ptr %26, align 8, !tbaa !34
  switch i32 %27, label %32 [
    i32 10, label %28
    i32 4, label %28
    i32 8, label %28
    i32 15, label %28
    i32 16, label %28
  ]

28:                                               ; preds = %21, %21, %21, %21, %21
  %29 = load ptr, ptr %5, align 8, !tbaa !9
  %30 = load ptr, ptr %6, align 8, !tbaa !80
  %31 = load i32, ptr %8, align 4, !tbaa !22
  call void @Curl_pollset_change(ptr noundef %29, ptr noundef %30, i32 noundef %31, i32 noundef 1, i32 noundef 2)
  br label %36

32:                                               ; preds = %21
  %33 = load ptr, ptr %5, align 8, !tbaa !9
  %34 = load ptr, ptr %6, align 8, !tbaa !80
  %35 = load i32, ptr %8, align 4, !tbaa !22
  call void @Curl_pollset_change(ptr noundef %33, ptr noundef %34, i32 noundef %35, i32 noundef 2, i32 noundef 1)
  br label %36

36:                                               ; preds = %32, %28
  call void @llvm.lifetime.end.p0(i64 4, ptr %8) #6
  br label %37

37:                                               ; preds = %36, %18, %3
  call void @llvm.lifetime.end.p0(i64 8, ptr %7) #6
  ret void
}