; Function Attrs: nounwind uwtable
define internal void @socks_cf_adjust_pollset(ptr noundef %0, ptr noundef %1, ptr noundef %2) #0 {
  %4 = getelementptr inbounds nuw i8, ptr %0, i64 16
  %5 = load ptr, ptr %4, align 8, !tbaa !4
  %6 = getelementptr inbounds nuw i8, ptr %0, i64 36
  %7 = load i8, ptr %6, align 4
  %8 = and i8 %7, 1
  %9 = icmp eq i8 %8, 0
  %10 = icmp ne ptr %5, null
  %or.cond = select i1 %9, i1 %10, i1 false
  br i1 %or.cond, label %11, label %16

11:                                               ; preds = %3
  %12 = tail call i32 @Curl_conn_cf_get_socket(ptr noundef nonnull %0, ptr noundef %1) #7
  %13 = load i32, ptr %5, align 8, !tbaa !25
  switch i32 %13, label %15 [
    i32 10, label %14
    i32 4, label %14
    i32 8, label %14
    i32 15, label %14
    i32 16, label %14
  ]

14:                                               ; preds = %11, %11, %11, %11, %11
  tail call void @Curl_pollset_change(ptr noundef %1, ptr noundef %2, i32 noundef %12, i32 noundef 1, i32 noundef 2) #7
  br label %16

15:                                               ; preds = %11
  tail call void @Curl_pollset_change(ptr noundef %1, ptr noundef %2, i32 noundef %12, i32 noundef 2, i32 noundef 1) #7
  br label %16

16:                                               ; preds = %14, %15, %3
  ret void
}